target datalayout = "e-m:e-p270:32:32-p271:32:32-p272:64:64-i64:64-i128:128-f80:128-n8:16:32:64-S128"
target triple = "x86_64-pc-linux-gnu"

%"class.std::__cxx11::basic_string" = type { %"struct.std::__cxx11::basic_string<char>::_Alloc_hider", i64, %union.anon }
%"struct.std::__cxx11::basic_string<char>::_Alloc_hider" = type { ptr }
%union.anon = type { i64, [8 x i8] }
%"class.testing::UnitTest" = type { ptr, %"class.testing::internal::Mutex", ptr }
%"class.testing::internal::Mutex" = type { %"class.testing::internal::MutexBase" }
%"class.testing::internal::MutexBase" = type { %union.pthread_mutex_t, i8, i64 }
%union.pthread_mutex_t = type { %struct.__pthread_mutex_s }
%struct.__pthread_mutex_s = type { i32, i32, i32, i32, i32, i16, i16, %struct.__pthread_internal_list }
%struct.__pthread_internal_list = type { ptr, ptr }
%"class.testing::internal::UnitTestImpl" = type <{ ptr, ptr, %"class.testing::internal::FilePath", %"class.testing::internal::DefaultGlobalTestPartResultReporter", %"class.testing::internal::DefaultPerThreadTestPartResultReporter", ptr, %"class.testing::internal::Mutex", %"class.testing::internal::ThreadLocal", %"class.std::vector", %"class.std::vector.21", %"class.std::vector.26", %"class.testing::internal::ParameterizedTestSuiteRegistry", %"class.testing::internal::TypeParameterizedTestSuiteRegistry", %"class.std::set", i8, [3 x i8], i32, ptr, ptr, %"class.testing::TestResult", %"class.testing::TestEventListeners", ptr, i8, [3 x i8], i32, %"class.testing::internal::Random", [4 x i8], i64, i64, %"class.std::unique_ptr.53", %"class.std::unique_ptr.61", %"class.testing::internal::ThreadLocal.69", i8, [7 x i8] }>
%"class.testing::internal::FilePath" = type { %"class.std::__cxx11::basic_string" }
%"class.testing::internal::DefaultGlobalTestPartResultReporter" = type { %"class.testing::TestPartResultReporterInterface", ptr }
%"class.testing::TestPartResultReporterInterface" = type { ptr }
%"class.testing::internal::DefaultPerThreadTestPartResultReporter" = type { %"class.testing::TestPartResultReporterInterface", ptr }
%"class.testing::internal::ThreadLocal" = type { i32, %"class.std::unique_ptr.10" }
%"class.std::unique_ptr.10" = type { %"struct.std::__uniq_ptr_data.11" }
%"struct.std::__uniq_ptr_data.11" = type { %"class.std::__uniq_ptr_impl.12" }
%"class.std::__uniq_ptr_impl.12" = type { %"class.std::tuple.13" }
%"class.std::tuple.13" = type { %"struct.std::_Tuple_impl.14" }
%"struct.std::_Tuple_impl.14" = type { %"struct.std::_Head_base.17" }
%"struct.std::_Head_base.17" = type { ptr }
%"class.std::vector" = type { %"struct.std::_Vector_base" }
%"struct.std::_Vector_base" = type { %"struct.std::_Vector_base<testing::Environment *, std::allocator<testing::Environment *>>::_Vector_impl" }
%"struct.std::_Vector_base<testing::Environment *, std::allocator<testing::Environment *>>::_Vector_impl" = type { %"struct.std::_Vector_base<testing::Environment *, std::allocator<testing::Environment *>>::_Vector_impl_data" }
%"struct.std::_Vector_base<testing::Environment *, std::allocator<testing::Environment *>>::_Vector_impl_data" = type { ptr, ptr, ptr }
%"class.std::vector.21" = type { %"struct.std::_Vector_base.22" }
%"struct.std::_Vector_base.22" = type { %"struct.std::_Vector_base<testing::TestSuite *, std::allocator<testing::TestSuite *>>::_Vector_impl" }
%"struct.std::_Vector_base<testing::TestSuite *, std::allocator<testing::TestSuite *>>::_Vector_impl" = type { %"struct.std::_Vector_base<testing::TestSuite *, std::allocator<testing::TestSuite *>>::_Vector_impl_data" }
%"struct.std::_Vector_base<testing::TestSuite *, std::allocator<testing::TestSuite *>>::_Vector_impl_data" = type { ptr, ptr, ptr }
%"class.std::vector.26" = type { %"struct.std::_Vector_base.27" }
%"struct.std::_Vector_base.27" = type { %"struct.std::_Vector_base<int, std::allocator<int>>::_Vector_impl" }
%"struct.std::_Vector_base<int, std::allocator<int>>::_Vector_impl" = type { %"struct.std::_Vector_base<int, std::allocator<int>>::_Vector_impl_data" }
%"struct.std::_Vector_base<int, std::allocator<int>>::_Vector_impl_data" = type { ptr, ptr, ptr }
%"class.testing::internal::ParameterizedTestSuiteRegistry" = type { %"class.std::vector.31" }
%"class.std::vector.31" = type { %"struct.std::_Vector_base.32" }
%"struct.std::_Vector_base.32" = type { %"struct.std::_Vector_base<testing::internal::ParameterizedTestSuiteInfoBase *, std::allocator<testing::internal::ParameterizedTestSuiteInfoBase *>>::_Vector_impl" }
%"struct.std::_Vector_base<testing::internal::ParameterizedTestSuiteInfoBase *, std::allocator<testing::internal::ParameterizedTestSuiteInfoBase *>>::_Vector_impl" = type { %"struct.std::_Vector_base<testing::internal::ParameterizedTestSuiteInfoBase *, std::allocator<testing::internal::ParameterizedTestSuiteInfoBase *>>::_Vector_impl_data" }
%"struct.std::_Vector_base<testing::internal::ParameterizedTestSuiteInfoBase *, std::allocator<testing::internal::ParameterizedTestSuiteInfoBase *>>::_Vector_impl_data" = type { ptr, ptr, ptr }
%"class.testing::internal::TypeParameterizedTestSuiteRegistry" = type { %"class.std::map" }
%"class.std::map" = type { %"class.std::_Rb_tree" }
%"class.std::_Rb_tree" = type { %"struct.std::_Rb_tree<std::__cxx11::basic_string<char>, std::pair<const std::__cxx11::basic_string<char>, testing::internal::TypeParameterizedTestSuiteRegistry::TypeParameterizedTestSuiteInfo>, std::_Select1st<std::pair<const std::__cxx11::basic_string<char>, testing::internal::TypeParameterizedTestSuiteRegistry::TypeParameterizedTestSuiteInfo>>, std::less<std::__cxx11::basic_string<char>>>::_Rb_tree_impl" }
%"struct.std::_Rb_tree<std::__cxx11::basic_string<char>, std::pair<const std::__cxx11::basic_string<char>, testing::internal::TypeParameterizedTestSuiteRegistry::TypeParameterizedTestSuiteInfo>, std::_Select1st<std::pair<const std::__cxx11::basic_string<char>, testing::internal::TypeParameterizedTestSuiteRegistry::TypeParameterizedTestSuiteInfo>>, std::less<std::__cxx11::basic_string<char>>>::_Rb_tree_impl" = type { [8 x i8], %"struct.std::_Rb_tree_header" }
%"struct.std::_Rb_tree_header" = type { %"struct.std::_Rb_tree_node_base", i64 }
%"struct.std::_Rb_tree_node_base" = type { i32, ptr, ptr, ptr }
%"class.std::set" = type { %"class.std::_Rb_tree.39" }
%"class.std::_Rb_tree.39" = type { %"struct.std::_Rb_tree<std::__cxx11::basic_string<char>, std::__cxx11::basic_string<char>, std::_Identity<std::__cxx11::basic_string<char>>, std::less<std::__cxx11::basic_string<char>>>::_Rb_tree_impl" }
%"struct.std::_Rb_tree<std::__cxx11::basic_string<char>, std::__cxx11::basic_string<char>, std::_Identity<std::__cxx11::basic_string<char>>, std::less<std::__cxx11::basic_string<char>>>::_Rb_tree_impl" = type { [8 x i8], %"struct.std::_Rb_tree_header" }
%"class.testing::TestResult" = type { %"class.testing::internal::Mutex", %"class.std::vector.43", %"class.std::vector.48", i32, i64, i64 }
%"class.std::vector.43" = type { %"struct.std::_Vector_base.44" }
%"struct.std::_Vector_base.44" = type { %"struct.std::_Vector_base<testing::TestPartResult, std::allocator<testing::TestPartResult>>::_Vector_impl" }
%"struct.std::_Vector_base<testing::TestPartResult, std::allocator<testing::TestPartResult>>::_Vector_impl" = type { %"struct.std::_Vector_base<testing::TestPartResult, std::allocator<testing::TestPartResult>>::_Vector_impl_data" }
%"struct.std::_Vector_base<testing::TestPartResult, std::allocator<testing::TestPartResult>>::_Vector_impl_data" = type { ptr, ptr, ptr }
%"class.std::vector.48" = type { %"struct.std::_Vector_base.49" }
%"struct.std::_Vector_base.49" = type { %"struct.std::_Vector_base<testing::TestProperty, std::allocator<testing::TestProperty>>::_Vector_impl" }
%"struct.std::_Vector_base<testing::TestProperty, std::allocator<testing::TestProperty>>::_Vector_impl" = type { %"struct.std::_Vector_base<testing::TestProperty, std::allocator<testing::TestProperty>>::_Vector_impl_data" }
%"struct.std::_Vector_base<testing::TestProperty, std::allocator<testing::TestProperty>>::_Vector_impl_data" = type { ptr, ptr, ptr }
%"class.testing::TestEventListeners" = type { ptr, ptr, ptr }
%"class.testing::internal::Random" = type { i32 }
%"class.std::unique_ptr.53" = type { %"struct.std::__uniq_ptr_data.54" }
%"struct.std::__uniq_ptr_data.54" = type { %"class.std::__uniq_ptr_impl.55" }
%"class.std::__uniq_ptr_impl.55" = type { %"class.std::tuple.56" }
%"class.std::tuple.56" = type { %"struct.std::_Tuple_impl.57" }
%"struct.std::_Tuple_impl.57" = type { %"struct.std::_Head_base.60" }
%"struct.std::_Head_base.60" = type { ptr }
%"class.std::unique_ptr.61" = type { %"struct.std::__uniq_ptr_data.62" }
%"struct.std::__uniq_ptr_data.62" = type { %"class.std::__uniq_ptr_impl.63" }
%"class.std::__uniq_ptr_impl.63" = type { %"class.std::tuple.64" }
%"class.std::tuple.64" = type { %"struct.std::_Tuple_impl.65" }
%"struct.std::_Tuple_impl.65" = type { %"struct.std::_Head_base.68" }
%"struct.std::_Head_base.68" = type { ptr }
%"class.testing::internal::ThreadLocal.69" = type { i32, %"class.std::unique_ptr.70" }
%"class.std::unique_ptr.70" = type { %"struct.std::__uniq_ptr_data.71" }
%"struct.std::__uniq_ptr_data.71" = type { %"class.std::__uniq_ptr_impl.72" }
%"class.std::__uniq_ptr_impl.72" = type { %"class.std::tuple.73" }
%"class.std::tuple.73" = type { %"struct.std::_Tuple_impl.74" }
%"struct.std::_Tuple_impl.74" = type { %"struct.std::_Head_base.77" }
%"struct.std::_Head_base.77" = type { ptr }
%"class.testing::internal::HasNewFatalFailureHelper" = type { %"class.testing::TestPartResultReporterInterface", i8, ptr }

@__dso_handle = external hidden global i8
@_ZZN7testing8UnitTest11GetInstanceEvE8instance = internal global %"class.testing::UnitTest" zeroinitializer, align 8
@_ZGVZN7testing8UnitTest11GetInstanceEvE8instance = internal global i64 0, align 8
@_ZN7testing8UnitTestC1Ev = unnamed_addr alias void (ptr), ptr @_ZN7testing8UnitTestC2Ev
@_ZN7testing8UnitTestD1Ev = unnamed_addr alias void (ptr), ptr @_ZN7testing8UnitTestD2Ev

; Function Attrs: mustprogress uwtable
define linkonce_odr noundef ptr @_ZN7testing8internal11ThreadLocalIPNS_31TestPartResultReporterInterfaceEE7pointerEv(ptr noundef nonnull align 8 dereferenceable(16) %0) #4 comdat align 2 {
  %2 = alloca ptr, align 8
  store ptr %0, ptr %2, align 8, !tbaa !501
  %3 = load ptr, ptr %2, align 8
  %4 = call noundef ptr @_ZNK7testing8internal11ThreadLocalIPNS_31TestPartResultReporterInterfaceEE16GetOrCreateValueEv(ptr noundef nonnull align 8 dereferenceable(16) %3)
  ret ptr %4
}

; Function Attrs: mustprogress uwtable
define linkonce_odr void @_ZN7testing8internal11ThreadLocalIPNS_31TestPartResultReporterInterfaceEE3setERKS3_(ptr noundef nonnull align 8 dereferenceable(16) %0, ptr noundef nonnull align 8 dereferenceable(8) %1) #4 comdat align 2 {
  %3 = alloca ptr, align 8
  %4 = alloca ptr, align 8
  store ptr %0, ptr %3, align 8, !tbaa !501
  store ptr %1, ptr %4, align 8, !tbaa !503
  %5 = load ptr, ptr %3, align 8
  %6 = load ptr, ptr %4, align 8, !tbaa !503
  %7 = load ptr, ptr %6, align 8, !tbaa !393
  %8 = call noundef ptr @_ZN7testing8internal11ThreadLocalIPNS_31TestPartResultReporterInterfaceEE7pointerEv(ptr noundef nonnull align 8 dereferenceable(16) %5)
  store ptr %7, ptr %8, align 8, !tbaa !393
  ret void
}

; Function Attrs: mustprogress nounwind uwtable
define linkonce_odr noundef ptr @_ZN7testing8UnitTest4implEv(ptr noundef nonnull align 8 dereferenceable(72) %0) #5 comdat align 2 {
  %2 = alloca ptr, align 8
  store ptr %0, ptr %2, align 8, !tbaa !431
  %3 = load ptr, ptr %2, align 8
  %4 = getelementptr inbounds nuw %"class.testing::UnitTest", ptr %3, i32 0, i32 2
  %5 = load ptr, ptr %4, align 8, !tbaa !432
  ret ptr %5
}

; Function Attrs: mustprogress uwtable
define noundef ptr @_ZN7testing8UnitTest11GetInstanceEv() #4 align 2 personality ptr @__gxx_personality_v0 {
  %1 = alloca ptr, align 8
  %2 = alloca i32, align 4
  %3 = load atomic i8, ptr @_ZGVZN7testing8UnitTest11GetInstanceEvE8instance acquire, align 8
  %4 = icmp eq i8 %3, 0
  br i1 %4, label %5, label %11, !prof !240

5:                                                ; preds = %0
  %6 = call i32 @__cxa_guard_acquire(ptr @_ZGVZN7testing8UnitTest11GetInstanceEvE8instance) #3
  %7 = icmp ne i32 %6, 0
  br i1 %7, label %8, label %11

8:                                                ; preds = %5
  invoke void @_ZN7testing8UnitTestC1Ev(ptr noundef nonnull align 8 dereferenceable(72) @_ZZN7testing8UnitTest11GetInstanceEvE8instance)
          to label %9 unwind label %12

9:                                                ; preds = %8
  %10 = call i32 @__cxa_atexit(ptr @_ZN7testing8UnitTestD1Ev, ptr @_ZZN7testing8UnitTest11GetInstanceEvE8instance, ptr @__dso_handle) #3
  call void @__cxa_guard_release(ptr @_ZGVZN7testing8UnitTest11GetInstanceEvE8instance) #3
  br label %11

11:                                               ; preds = %9, %5, %0
  ret ptr @_ZZN7testing8UnitTest11GetInstanceEvE8instance

12:                                               ; preds = %8
  %13 = landingpad { ptr, i32 }
          cleanup
  %14 = extractvalue { ptr, i32 } %13, 0
  store ptr %14, ptr %1, align 8
  %15 = extractvalue { ptr, i32 } %13, 1
  store i32 %15, ptr %2, align 4
  call void @__cxa_guard_abort(ptr @_ZGVZN7testing8UnitTest11GetInstanceEvE8instance) #3
  br label %16

16:                                               ; preds = %12
  %17 = load ptr, ptr %1, align 8
  %18 = load i32, ptr %2, align 4
  %19 = insertvalue { ptr, i32 } poison, ptr %17, 0
  %20 = insertvalue { ptr, i32 } %19, i32 %18, 1
  resume { ptr, i32 } %20
}

; Function Attrs: mustprogress nounwind uwtable
define linkonce_odr void @_ZN7testing31TestPartResultReporterInterfaceD2Ev(ptr noundef nonnull align 8 dereferenceable(8) %0) unnamed_addr #5 comdat align 2 {
  %2 = alloca ptr, align 8
  store ptr %0, ptr %2, align 8, !tbaa !393
  ret void
}

; Function Attrs: mustprogress uwtable
define void @_ZN7testing8internal12UnitTestImpl41SetTestPartResultReporterForCurrentThreadEPNS_31TestPartResultReporterInterfaceE(ptr noundef nonnull align 8 dereferenceable(601) %0, ptr noundef %1) #4 align 2 {
  %3 = alloca ptr, align 8
  %4 = alloca ptr, align 8
  store ptr %0, ptr %3, align 8, !tbaa !51
  store ptr %1, ptr %4, align 8, !tbaa !393
  %5 = load ptr, ptr %3, align 8
  %6 = getelementptr inbounds nuw %"class.testing::internal::UnitTestImpl", ptr %5, i32 0, i32 7
  call void @_ZN7testing8internal11ThreadLocalIPNS_31TestPartResultReporterInterfaceEE3setERKS3_(ptr noundef nonnull align 8 dereferenceable(16) %6, ptr noundef nonnull align 8 dereferenceable(8) %4)
  ret void
}

; Function Attrs: inlinehint mustprogress uwtable
define linkonce_odr noundef ptr @_ZN7testing8internal15GetUnitTestImplEv() #11 comdat {
  %1 = call noundef ptr @_ZN7testing8UnitTest11GetInstanceEv()
  %2 = call noundef ptr @_ZN7testing8UnitTest4implEv(ptr noundef nonnull align 8 dereferenceable(72) %1)
  ret ptr %2
}

; Function Attrs: mustprogress nounwind uwtable
define void @_ZN7testing8internal24HasNewFatalFailureHelperD2Ev(ptr noundef nonnull align 8 dereferenceable(24) %0) unnamed_addr #5 align 2 personality ptr @__gxx_personality_v0 {
  %2 = alloca ptr, align 8
  store ptr %0, ptr %2, align 8, !tbaa !388
  %3 = load ptr, ptr %2, align 8
  store ptr getelementptr inbounds inrange(-16, 24) ({ [5 x ptr] }, ptr @_ZTVN7testing8internal24HasNewFatalFailureHelperE, i32 0, i32 0, i32 2), ptr %3, align 8, !tbaa !47
  %4 = invoke noundef ptr @_ZN7testing8internal15GetUnitTestImplEv()
          to label %5 unwind label %9

5:                                                ; preds = %1
  %6 = getelementptr inbounds nuw %"class.testing::internal::HasNewFatalFailureHelper", ptr %3, i32 0, i32 2
  %7 = load ptr, ptr %6, align 8, !tbaa !392
  invoke void @_ZN7testing8internal12UnitTestImpl41SetTestPartResultReporterForCurrentThreadEPNS_31TestPartResultReporterInterfaceE(ptr noundef nonnull align 8 dereferenceable(601) %4, ptr noundef %7)
          to label %8 unwind label %9

8:                                                ; preds = %5
  call void @_ZN7testing31TestPartResultReporterInterfaceD2Ev(ptr noundef nonnull align 8 dereferenceable(8) %3) #3
  ret void

9:                                                ; preds = %5, %1
  %10 = landingpad { ptr, i32 }
          catch ptr null
  %11 = extractvalue { ptr, i32 } %10, 0
  call void @__clang_call_terminate(ptr %11) #31
  unreachable
}